target datalayout = "e-m:e-p270:32:32-p271:32:32-p272:64:64-i64:64-i128:128-f80:128-n8:16:32:64-S128"
target triple = "x86_64-pc-linux-gnu"

%struct.cli_hashtable = type { ptr, i64, i64, i64 }
%struct.cli_element = type { ptr, i64, i64 }

@DELETED_KEY = internal constant [1 x i8] zeroinitializer, align 1
@.str.5 = private unnamed_addr constant [33 x i8] c"/* TODO: include GPL headers */\0A\00", align 1
@.str.6 = private unnamed_addr constant [22 x i8] c"#include <hashtab.h>\0A\00", align 1
@.str.7 = private unnamed_addr constant [45 x i8] c"static struct cli_element %s_elements[] = {\0A\00", align 1
@.str.8 = private unnamed_addr constant [14 x i8] c"\09{NULL,0,0},\0A\00", align 1
@.str.9 = private unnamed_addr constant [21 x i8] c"\09{DELETED_KEY,0,0},\0A\00", align 1
@.str.10 = private unnamed_addr constant [20 x i8] c"\09{\22%s\22, %zu, %zu},\0A\00", align 1
@.str.11 = private unnamed_addr constant [4 x i8] c"};\0A\00", align 1
@.str.12 = private unnamed_addr constant [35 x i8] c"const struct cli_hashtable %s = {\0A\00", align 1
@.str.13 = private unnamed_addr constant [28 x i8] c"\09%s_elements, %zu, %zu, %zu\00", align 1
@.str.14 = private unnamed_addr constant [5 x i8] c"\0A};\0A\00", align 1

; Function Attrs: nounwind uwtable
define i32 @cli_hashtab_generate_c(ptr noundef %0, ptr noundef %1) #0 {
  %3 = alloca ptr, align 8
  %4 = alloca ptr, align 8
  %5 = alloca i64, align 8
  %6 = alloca ptr, align 8
  store ptr %0, ptr %3, align 8
  store ptr %1, ptr %4, align 8
  %7 = call i32 (ptr, ...) @printf(ptr noundef @.str.5)
  %8 = call i32 (ptr, ...) @printf(ptr noundef @.str.6)
  %9 = load ptr, ptr %4, align 8
  %10 = call i32 (ptr, ...) @printf(ptr noundef @.str.7, ptr noundef %9)
  store i64 0, ptr %5, align 8
  br label %11

11:                                               ; preds = %49, %2
  %12 = load i64, ptr %5, align 8
  %13 = load ptr, ptr %3, align 8
  %14 = getelementptr inbounds %struct.cli_hashtable, ptr %13, i32 0, i32 1
  %15 = load i64, ptr %14, align 8
  %16 = icmp ult i64 %12, %15
  br i1 %16, label %17, label %52

17:                                               ; preds = %11
  %18 = load ptr, ptr %3, align 8
  %19 = getelementptr inbounds %struct.cli_hashtable, ptr %18, i32 0, i32 0
  %20 = load ptr, ptr %19, align 8
  %21 = load i64, ptr %5, align 8
  %22 = getelementptr inbounds %struct.cli_element, ptr %20, i64 %21
  store ptr %22, ptr %6, align 8
  %23 = load ptr, ptr %6, align 8
  %24 = getelementptr inbounds %struct.cli_element, ptr %23, i32 0, i32 0
  %25 = load ptr, ptr %24, align 8
  %26 = icmp ne ptr %25, null
  br i1 %26, label %29, label %27

27:                                               ; preds = %17
  %28 = call i32 (ptr, ...) @printf(ptr noundef @.str.8)
  br label %48

29:                                               ; preds = %17
  %30 = load ptr, ptr %6, align 8
  %31 = getelementptr inbounds %struct.cli_element, ptr %30, i32 0, i32 0
  %32 = load ptr, ptr %31, align 8
  %33 = icmp eq ptr %32, @DELETED_KEY
  br i1 %33, label %34, label %36

34:                                               ; preds = %29
  %35 = call i32 (ptr, ...) @printf(ptr noundef @.str.9)
  br label %47

36:                                               ; preds = %29
  %37 = load ptr, ptr %6, align 8
  %38 = getelementptr inbounds %struct.cli_element, ptr %37, i32 0, i32 0
  %39 = load ptr, ptr %38, align 8
  %40 = load ptr, ptr %6, align 8
  %41 = getelementptr inbounds %struct.cli_element, ptr %40, i32 0, i32 1
  %42 = load i64, ptr %41, align 8
  %43 = load ptr, ptr %6, align 8
  %44 = getelementptr inbounds %struct.cli_element, ptr %43, i32 0, i32 2
  %45 = load i64, ptr %44, align 8
  %46 = call i32 (ptr, ...) @printf(ptr noundef @.str.10, ptr noundef %39, i64 noundef %42, i64 noundef %45)
  br label %47

47:                                               ; preds = %36, %34
  br label %48

48:                                               ; preds = %47, %27
  br label %49

49:                                               ; preds = %48
  %50 = load i64, ptr %5, align 8
  %51 = add i64 %50, 1
  store i64 %51, ptr %5, align 8
  br label %11

52:                                               ; preds = %11
  %53 = call i32 (ptr, ...) @printf(ptr noundef @.str.11)
  %54 = load ptr, ptr %4, align 8
  %55 = call i32 (ptr, ...) @printf(ptr noundef @.str.12, ptr noundef %54)
  %56 = load ptr, ptr %4, align 8
  %57 = load ptr, ptr %3, align 8
  %58 = getelementptr inbounds %struct.cli_hashtable, ptr %57, i32 0, i32 1
  %59 = load i64, ptr %58, align 8
  %60 = load ptr, ptr %3, align 8
  %61 = getelementptr inbounds %struct.cli_hashtable, ptr %60, i32 0, i32 2
  %62 = load i64, ptr %61, align 8
  %63 = load ptr, ptr %3, align 8
  %64 = getelementptr inbounds %struct.cli_hashtable, ptr %63, i32 0, i32 3
  %65 = load i64, ptr %64, align 8
  %66 = call i32 (ptr, ...) @printf(ptr noundef @.str.13, ptr noundef %56, i64 noundef %59, i64 noundef %62, i64 noundef %65)
  %67 = call i32 (ptr, ...) @printf(ptr noundef @.str.14)
  ret i32 0
}