; Function Attrs: nofree nounwind uwtable
define noundef i32 @cli_hashtab_generate_c(ptr nocapture noundef readonly %0, ptr noundef %1) local_unnamed_addr #12 {
  %puts = tail call i32 @puts(ptr nonnull dereferenceable(1) @str)
  %puts16 = tail call i32 @puts(ptr nonnull dereferenceable(1) @str.1)
  %3 = tail call i32 (ptr, ...) @printf(ptr noundef nonnull dereferenceable(1) @.str.7, ptr noundef %1)
  %4 = getelementptr inbounds i8, ptr %0, i64 8
  %5 = load i64, ptr %4, align 8
  %.not22 = icmp eq i64 %5, 0
  br i1 %.not22, label %._crit_edge, label %.lr.ph

.lr.ph:                                           ; preds = %2, %19
  %.021 = phi i64 [ %20, %19 ], [ 0, %2 ]
  %6 = load ptr, ptr %0, align 8
  %7 = getelementptr inbounds %struct.cli_element, ptr %6, i64 %.021
  %8 = load ptr, ptr %7, align 8
  %.not = icmp eq ptr %8, null
  br i1 %.not, label %9, label %10

9:                                                ; preds = %.lr.ph
  %puts19 = tail call i32 @puts(ptr nonnull dereferenceable(1) @str.4)
  br label %19

10:                                               ; preds = %.lr.ph
  %11 = icmp eq ptr %8, @DELETED_KEY
  br i1 %11, label %12, label %13

12:                                               ; preds = %10
  %puts20 = tail call i32 @puts(ptr nonnull dereferenceable(1) @str.5)
  br label %19

13:                                               ; preds = %10
  %14 = getelementptr inbounds i8, ptr %7, i64 8
  %15 = load i64, ptr %14, align 8
  %16 = getelementptr inbounds i8, ptr %7, i64 16
  %17 = load i64, ptr %16, align 8
  %18 = tail call i32 (ptr, ...) @printf(ptr noundef nonnull dereferenceable(1) @.str.10, ptr noundef nonnull %8, i64 noundef %15, i64 noundef %17)
  br label %19

19:                                               ; preds = %9, %13, %12
  %20 = add nuw i64 %.021, 1
  %21 = load i64, ptr %4, align 8
  %22 = icmp ult i64 %20, %21
  br i1 %22, label %.lr.ph, label %._crit_edge

._crit_edge:                                      ; preds = %19, %2
  %puts17 = tail call i32 @puts(ptr nonnull dereferenceable(1) @str.2)
  %23 = tail call i32 (ptr, ...) @printf(ptr noundef nonnull dereferenceable(1) @.str.12, ptr noundef %1)
  %24 = load i64, ptr %4, align 8
  %25 = getelementptr inbounds i8, ptr %0, i64 16
  %26 = load i64, ptr %25, align 8
  %27 = getelementptr inbounds i8, ptr %0, i64 24
  %28 = load i64, ptr %27, align 8
  %29 = tail call i32 (ptr, ...) @printf(ptr noundef nonnull dereferenceable(1) @.str.13, ptr noundef %1, i64 noundef %24, i64 noundef %26, i64 noundef %28)
  %puts18 = tail call i32 @puts(ptr nonnull dereferenceable(1) @str.3)
  ret i32 0
}